target datalayout = "e-m:e-p270:32:32-p271:32:32-p272:64:64-i64:64-i128:128-f80:128-n8:16:32:64-S128"
target triple = "x86_64-pc-linux-gnu"

%struct.opj_mutex_t = type { %union.pthread_mutex_t }
%union.pthread_mutex_t = type { %struct.__pthread_mutex_s }
%struct.__pthread_mutex_s = type { i32, i32, i32, i32, i32, i16, i16, %struct.__pthread_internal_list }
%struct.__pthread_internal_list = type { ptr, ptr }
%struct.opj_cond_t = type { %union.pthread_cond_t }
%union.pthread_cond_t = type { %struct.__pthread_cond_s }
%struct.__pthread_cond_s = type { %union.__atomic_wide_counter, %union.__atomic_wide_counter, [2 x i32], [2 x i32], i32, i32, [2 x i32] }
%union.__atomic_wide_counter = type { i64 }
%struct.opj_tls_t = type { ptr, i32 }
%struct.opj_tls_key_val_t = type { i32, ptr, ptr }
%struct.opj_thread_pool_t = type { ptr, i32, ptr, ptr, i32, ptr, i32, ptr, i32, ptr, i32 }
%struct.opj_worker_thread_t = type { ptr, ptr, i32, ptr, ptr }
%struct.opj_worker_thread_list_t = type { ptr, ptr }
%struct.opj_worker_thread_job_t = type { ptr, ptr }
%struct.opj_job_list_t = type { ptr, ptr }

; Function Attrs: nounwind uwtable
define hidden void @opj_cond_wait(ptr noundef %0, ptr noundef %1) #0 {
  %3 = alloca ptr, align 8
  %4 = alloca ptr, align 8
  store ptr %0, ptr %3, align 8, !tbaa !8
  store ptr %1, ptr %4, align 8, !tbaa !3
  %5 = load ptr, ptr %3, align 8, !tbaa !8
  %6 = getelementptr inbounds nuw %struct.opj_cond_t, ptr %5, i32 0, i32 0
  %7 = load ptr, ptr %4, align 8, !tbaa !3
  %8 = getelementptr inbounds nuw %struct.opj_mutex_t, ptr %7, i32 0, i32 0
  %9 = call i32 @pthread_cond_wait(ptr noundef %6, ptr noundef %8)
  ret void
}

; Function Attrs: nounwind uwtable
define hidden void @opj_mutex_unlock(ptr noundef %0) #0 {
  %2 = alloca ptr, align 8
  store ptr %0, ptr %2, align 8, !tbaa !3
  %3 = load ptr, ptr %2, align 8, !tbaa !3
  %4 = getelementptr inbounds nuw %struct.opj_mutex_t, ptr %3, i32 0, i32 0
  %5 = call i32 @pthread_mutex_unlock(ptr noundef %4) #4
  ret void
}

; Function Attrs: nounwind uwtable
define hidden void @opj_cond_signal(ptr noundef %0) #0 {
  %2 = alloca ptr, align 8
  %3 = alloca i32, align 4
  store ptr %0, ptr %2, align 8, !tbaa !8
  call void @llvm.lifetime.start.p0(i64 4, ptr %3) #4
  %4 = load ptr, ptr %2, align 8, !tbaa !8
  %5 = getelementptr inbounds nuw %struct.opj_cond_t, ptr %4, i32 0, i32 0
  %6 = call i32 @pthread_cond_signal(ptr noundef %5) #4
  store i32 %6, ptr %3, align 4, !tbaa !10
  call void @llvm.lifetime.end.p0(i64 4, ptr %3) #4
  ret void
}

; Function Attrs: nounwind uwtable
define hidden void @opj_mutex_lock(ptr noundef %0) #0 {
  %2 = alloca ptr, align 8
  store ptr %0, ptr %2, align 8, !tbaa !3
  %3 = load ptr, ptr %2, align 8, !tbaa !3
  %4 = getelementptr inbounds nuw %struct.opj_mutex_t, ptr %3, i32 0, i32 0
  %5 = call i32 @pthread_mutex_lock(ptr noundef %4) #4
  ret void
}

; Function Attrs: nounwind uwtable
define internal void @opj_tls_destroy(ptr noundef %0) #0 {
  %2 = alloca ptr, align 8
  %3 = alloca i32, align 4
  %4 = alloca i32, align 4
  store ptr %0, ptr %2, align 8, !tbaa !20
  call void @llvm.lifetime.start.p0(i64 4, ptr %3) #4
  %5 = load ptr, ptr %2, align 8, !tbaa !20
  %6 = icmp ne ptr %5, null
  br i1 %6, label %8, label %7

7:                                                ; preds = %1
  store i32 1, ptr %4, align 4
  br label %51

8:                                                ; preds = %1
  store i32 0, ptr %3, align 4, !tbaa !10
  br label %9

9:                                                ; preds = %43, %8
  %10 = load i32, ptr %3, align 4, !tbaa !10
  %11 = load ptr, ptr %2, align 8, !tbaa !20
  %12 = getelementptr inbounds nuw %struct.opj_tls_t, ptr %11, i32 0, i32 1
  %13 = load i32, ptr %12, align 8, !tbaa !22
  %14 = icmp slt i32 %10, %13
  br i1 %14, label %15, label %46

15:                                               ; preds = %9
  %16 = load ptr, ptr %2, align 8, !tbaa !20
  %17 = getelementptr inbounds nuw %struct.opj_tls_t, ptr %16, i32 0, i32 0
  %18 = load ptr, ptr %17, align 8, !tbaa !24
  %19 = load i32, ptr %3, align 4, !tbaa !10
  %20 = sext i32 %19 to i64
  %21 = getelementptr inbounds %struct.opj_tls_key_val_t, ptr %18, i64 %20
  %22 = getelementptr inbounds nuw %struct.opj_tls_key_val_t, ptr %21, i32 0, i32 2
  %23 = load ptr, ptr %22, align 8, !tbaa !30
  %24 = icmp ne ptr %23, null
  br i1 %24, label %25, label %42

25:                                               ; preds = %15
  %26 = load ptr, ptr %2, align 8, !tbaa !20
  %27 = getelementptr inbounds nuw %struct.opj_tls_t, ptr %26, i32 0, i32 0
  %28 = load ptr, ptr %27, align 8, !tbaa !24
  %29 = load i32, ptr %3, align 4, !tbaa !10
  %30 = sext i32 %29 to i64
  %31 = getelementptr inbounds %struct.opj_tls_key_val_t, ptr %28, i64 %30
  %32 = getelementptr inbounds nuw %struct.opj_tls_key_val_t, ptr %31, i32 0, i32 2
  %33 = load ptr, ptr %32, align 8, !tbaa !30
  %34 = load ptr, ptr %2, align 8, !tbaa !20
  %35 = getelementptr inbounds nuw %struct.opj_tls_t, ptr %34, i32 0, i32 0
  %36 = load ptr, ptr %35, align 8, !tbaa !24
  %37 = load i32, ptr %3, align 4, !tbaa !10
  %38 = sext i32 %37 to i64
  %39 = getelementptr inbounds %struct.opj_tls_key_val_t, ptr %36, i64 %38
  %40 = getelementptr inbounds nuw %struct.opj_tls_key_val_t, ptr %39, i32 0, i32 1
  %41 = load ptr, ptr %40, align 8, !tbaa !27
  call void %33(ptr noundef %41)
  br label %42

42:                                               ; preds = %25, %15
  br label %43

43:                                               ; preds = %42
  %44 = load i32, ptr %3, align 4, !tbaa !10
  %45 = add nsw i32 %44, 1
  store i32 %45, ptr %3, align 4, !tbaa !10
  br label %9, !llvm.loop !71

46:                                               ; preds = %9
  %47 = load ptr, ptr %2, align 8, !tbaa !20
  %48 = getelementptr inbounds nuw %struct.opj_tls_t, ptr %47, i32 0, i32 0
  %49 = load ptr, ptr %48, align 8, !tbaa !24
  call void @opj_free(ptr noundef %49)
  %50 = load ptr, ptr %2, align 8, !tbaa !20
  call void @opj_free(ptr noundef %50)
  store i32 0, ptr %4, align 4
  br label %51

51:                                               ; preds = %46, %7
  call void @llvm.lifetime.end.p0(i64 4, ptr %3) #4
  %52 = load i32, ptr %4, align 4
  switch i32 %52, label %54 [
    i32 0, label %53
    i32 1, label %53
  ]

53:                                               ; preds = %51, %51
  ret void

54:                                               ; preds = %51
  unreachable
}

; Function Attrs: nounwind uwtable
define internal ptr @opj_thread_pool_get_next_job(ptr noundef %0, ptr noundef %1, i32 noundef %2) #0 {
  %4 = alloca ptr, align 8
  %5 = alloca ptr, align 8
  %6 = alloca ptr, align 8
  %7 = alloca i32, align 4
  %8 = alloca ptr, align 8
  %9 = alloca i32, align 4
  %10 = alloca ptr, align 8
  %11 = alloca ptr, align 8
  store ptr %0, ptr %5, align 8, !tbaa !32
  store ptr %1, ptr %6, align 8, !tbaa !12
  store i32 %2, ptr %7, align 4, !tbaa !10
  br label %12

12:                                               ; preds = %3, %124
  call void @llvm.lifetime.start.p0(i64 8, ptr %8) #4
  %13 = load ptr, ptr %5, align 8, !tbaa !32
  %14 = getelementptr inbounds nuw %struct.opj_thread_pool_t, ptr %13, i32 0, i32 3
  %15 = load ptr, ptr %14, align 8, !tbaa !39
  call void @opj_mutex_lock(ptr noundef %15)
  %16 = load i32, ptr %7, align 4, !tbaa !10
  %17 = icmp ne i32 %16, 0
  br i1 %17, label %18, label %35

18:                                               ; preds = %12
  store i32 0, ptr %7, align 4, !tbaa !10
  %19 = load ptr, ptr %5, align 8, !tbaa !32
  %20 = getelementptr inbounds nuw %struct.opj_thread_pool_t, ptr %19, i32 0, i32 6
  %21 = load volatile i32, ptr %20, align 8, !tbaa !65
  %22 = add nsw i32 %21, -1
  store volatile i32 %22, ptr %20, align 8, !tbaa !65
  %23 = load ptr, ptr %5, align 8, !tbaa !32
  %24 = getelementptr inbounds nuw %struct.opj_thread_pool_t, ptr %23, i32 0, i32 6
  %25 = load volatile i32, ptr %24, align 8, !tbaa !65
  %26 = load ptr, ptr %5, align 8, !tbaa !32
  %27 = getelementptr inbounds nuw %struct.opj_thread_pool_t, ptr %26, i32 0, i32 10
  %28 = load i32, ptr %27, align 8, !tbaa !64
  %29 = icmp sle i32 %25, %28
  br i1 %29, label %30, label %34

30:                                               ; preds = %18
  %31 = load ptr, ptr %5, align 8, !tbaa !32
  %32 = getelementptr inbounds nuw %struct.opj_thread_pool_t, ptr %31, i32 0, i32 2
  %33 = load ptr, ptr %32, align 8, !tbaa !40
  call void @opj_cond_signal(ptr noundef %33)
  br label %34

34:                                               ; preds = %30, %18
  br label %35

35:                                               ; preds = %34, %12
  %36 = load ptr, ptr %5, align 8, !tbaa !32
  %37 = getelementptr inbounds nuw %struct.opj_thread_pool_t, ptr %36, i32 0, i32 4
  %38 = load volatile i32, ptr %37, align 8, !tbaa !34
  %39 = icmp eq i32 %38, 1
  br i1 %39, label %40, label %44

40:                                               ; preds = %35
  %41 = load ptr, ptr %5, align 8, !tbaa !32
  %42 = getelementptr inbounds nuw %struct.opj_thread_pool_t, ptr %41, i32 0, i32 3
  %43 = load ptr, ptr %42, align 8, !tbaa !39
  call void @opj_mutex_unlock(ptr noundef %43)
  store ptr null, ptr %4, align 8
  store i32 1, ptr %9, align 4
  br label %122

44:                                               ; preds = %35
  %45 = load ptr, ptr %5, align 8, !tbaa !32
  %46 = getelementptr inbounds nuw %struct.opj_thread_pool_t, ptr %45, i32 0, i32 5
  %47 = load ptr, ptr %46, align 8, !tbaa !67
  store ptr %47, ptr %8, align 8, !tbaa !61
  %48 = load ptr, ptr %8, align 8, !tbaa !61
  %49 = icmp ne ptr %48, null
  br i1 %49, label %50, label %64

50:                                               ; preds = %44
  call void @llvm.lifetime.start.p0(i64 8, ptr %10) #4
  %51 = load ptr, ptr %8, align 8, !tbaa !61
  %52 = getelementptr inbounds nuw %struct.opj_job_list_t, ptr %51, i32 0, i32 1
  %53 = load ptr, ptr %52, align 8, !tbaa !68
  %54 = load ptr, ptr %5, align 8, !tbaa !32
  %55 = getelementptr inbounds nuw %struct.opj_thread_pool_t, ptr %54, i32 0, i32 5
  store ptr %53, ptr %55, align 8, !tbaa !67
  %56 = load ptr, ptr %8, align 8, !tbaa !61
  %57 = getelementptr inbounds nuw %struct.opj_job_list_t, ptr %56, i32 0, i32 0
  %58 = load ptr, ptr %57, align 8, !tbaa !62
  store ptr %58, ptr %10, align 8, !tbaa !12
  %59 = load ptr, ptr %5, align 8, !tbaa !32
  %60 = getelementptr inbounds nuw %struct.opj_thread_pool_t, ptr %59, i32 0, i32 3
  %61 = load ptr, ptr %60, align 8, !tbaa !39
  call void @opj_mutex_unlock(ptr noundef %61)
  %62 = load ptr, ptr %8, align 8, !tbaa !61
  call void @opj_free(ptr noundef %62)
  %63 = load ptr, ptr %10, align 8, !tbaa !12
  store ptr %63, ptr %4, align 8
  store i32 1, ptr %9, align 4
  call void @llvm.lifetime.end.p0(i64 8, ptr %10) #4
  br label %122

64:                                               ; preds = %44
  %65 = load ptr, ptr %6, align 8, !tbaa !12
  %66 = getelementptr inbounds nuw %struct.opj_worker_thread_t, ptr %65, i32 0, i32 2
  %67 = load i32, ptr %66, align 8, !tbaa !47
  %68 = icmp ne i32 %67, 0
  br i1 %68, label %103, label %69

69:                                               ; preds = %64
  call void @llvm.lifetime.start.p0(i64 8, ptr %11) #4
  %70 = load ptr, ptr %6, align 8, !tbaa !12
  %71 = getelementptr inbounds nuw %struct.opj_worker_thread_t, ptr %70, i32 0, i32 2
  store i32 1, ptr %71, align 8, !tbaa !47
  %72 = load ptr, ptr %5, align 8, !tbaa !32
  %73 = getelementptr inbounds nuw %struct.opj_thread_pool_t, ptr %72, i32 0, i32 8
  %74 = load i32, ptr %73, align 8, !tbaa !50
  %75 = add nsw i32 %74, 1
  store i32 %75, ptr %73, align 8, !tbaa !50
  %76 = call ptr @opj_malloc(i64 noundef 16)
  store ptr %76, ptr %11, align 8, !tbaa !56
  %77 = load ptr, ptr %11, align 8, !tbaa !56
  %78 = icmp eq ptr %77, null
  br i1 %78, label %79, label %88

79:                                               ; preds = %69
  %80 = load ptr, ptr %5, align 8, !tbaa !32
  %81 = getelementptr inbounds nuw %struct.opj_thread_pool_t, ptr %80, i32 0, i32 4
  store volatile i32 2, ptr %81, align 8, !tbaa !34
  %82 = load ptr, ptr %5, align 8, !tbaa !32
  %83 = getelementptr inbounds nuw %struct.opj_thread_pool_t, ptr %82, i32 0, i32 2
  %84 = load ptr, ptr %83, align 8, !tbaa !40
  call void @opj_cond_signal(ptr noundef %84)
  %85 = load ptr, ptr %5, align 8, !tbaa !32
  %86 = getelementptr inbounds nuw %struct.opj_thread_pool_t, ptr %85, i32 0, i32 3
  %87 = load ptr, ptr %86, align 8, !tbaa !39
  call void @opj_mutex_unlock(ptr noundef %87)
  store ptr null, ptr %4, align 8
  store i32 1, ptr %9, align 4
  br label %100

88:                                               ; preds = %69
  %89 = load ptr, ptr %6, align 8, !tbaa !12
  %90 = load ptr, ptr %11, align 8, !tbaa !56
  %91 = getelementptr inbounds nuw %struct.opj_worker_thread_list_t, ptr %90, i32 0, i32 0
  store ptr %89, ptr %91, align 8, !tbaa !69
  %92 = load ptr, ptr %5, align 8, !tbaa !32
  %93 = getelementptr inbounds nuw %struct.opj_thread_pool_t, ptr %92, i32 0, i32 7
  %94 = load ptr, ptr %93, align 8, !tbaa !53
  %95 = load ptr, ptr %11, align 8, !tbaa !56
  %96 = getelementptr inbounds nuw %struct.opj_worker_thread_list_t, ptr %95, i32 0, i32 1
  store ptr %94, ptr %96, align 8, !tbaa !54
  %97 = load ptr, ptr %11, align 8, !tbaa !56
  %98 = load ptr, ptr %5, align 8, !tbaa !32
  %99 = getelementptr inbounds nuw %struct.opj_thread_pool_t, ptr %98, i32 0, i32 7
  store ptr %97, ptr %99, align 8, !tbaa !53
  store i32 0, ptr %9, align 4
  br label %100

100:                                              ; preds = %88, %79
  call void @llvm.lifetime.end.p0(i64 8, ptr %11) #4
  %101 = load i32, ptr %9, align 4
  switch i32 %101, label %122 [
    i32 0, label %102
  ]

102:                                              ; preds = %100
  br label %103

103:                                              ; preds = %102, %64
  %104 = load ptr, ptr %5, align 8, !tbaa !32
  %105 = getelementptr inbounds nuw %struct.opj_thread_pool_t, ptr %104, i32 0, i32 2
  %106 = load ptr, ptr %105, align 8, !tbaa !40
  call void @opj_cond_signal(ptr noundef %106)
  %107 = load ptr, ptr %6, align 8, !tbaa !12
  %108 = getelementptr inbounds nuw %struct.opj_worker_thread_t, ptr %107, i32 0, i32 3
  %109 = load ptr, ptr %108, align 8, !tbaa !45
  call void @opj_mutex_lock(ptr noundef %109)
  %110 = load ptr, ptr %5, align 8, !tbaa !32
  %111 = getelementptr inbounds nuw %struct.opj_thread_pool_t, ptr %110, i32 0, i32 3
  %112 = load ptr, ptr %111, align 8, !tbaa !39
  call void @opj_mutex_unlock(ptr noundef %112)
  %113 = load ptr, ptr %6, align 8, !tbaa !12
  %114 = getelementptr inbounds nuw %struct.opj_worker_thread_t, ptr %113, i32 0, i32 4
  %115 = load ptr, ptr %114, align 8, !tbaa !46
  %116 = load ptr, ptr %6, align 8, !tbaa !12
  %117 = getelementptr inbounds nuw %struct.opj_worker_thread_t, ptr %116, i32 0, i32 3
  %118 = load ptr, ptr %117, align 8, !tbaa !45
  call void @opj_cond_wait(ptr noundef %115, ptr noundef %118)
  %119 = load ptr, ptr %6, align 8, !tbaa !12
  %120 = getelementptr inbounds nuw %struct.opj_worker_thread_t, ptr %119, i32 0, i32 3
  %121 = load ptr, ptr %120, align 8, !tbaa !45
  call void @opj_mutex_unlock(ptr noundef %121)
  store i32 0, ptr %9, align 4
  br label %122

122:                                              ; preds = %103, %100, %50, %40
  call void @llvm.lifetime.end.p0(i64 8, ptr %8) #4
  %123 = load i32, ptr %9, align 4
  switch i32 %123, label %127 [
    i32 0, label %124
    i32 1, label %125
  ]

124:                                              ; preds = %122
  br label %12

125:                                              ; preds = %122
  %126 = load ptr, ptr %4, align 8
  ret ptr %126

127:                                              ; preds = %122
  unreachable
}

; Function Attrs: nounwind uwtable
define internal ptr @opj_tls_new() #0 {
  %1 = call ptr @opj_calloc(i64 noundef 1, i64 noundef 16)
  ret ptr %1
}

; Function Attrs: nounwind uwtable
define internal void @opj_worker_thread_function(ptr noundef %0) #0 {
  %2 = alloca ptr, align 8
  %3 = alloca ptr, align 8
  %4 = alloca ptr, align 8
  %5 = alloca ptr, align 8
  %6 = alloca i32, align 4
  %7 = alloca ptr, align 8
  %8 = alloca i32, align 4
  store ptr %0, ptr %2, align 8, !tbaa !12
  call void @llvm.lifetime.start.p0(i64 8, ptr %3) #4
  call void @llvm.lifetime.start.p0(i64 8, ptr %4) #4
  call void @llvm.lifetime.start.p0(i64 8, ptr %5) #4
  call void @llvm.lifetime.start.p0(i64 4, ptr %6) #4
  store i32 0, ptr %6, align 4, !tbaa !10
  %9 = load ptr, ptr %2, align 8, !tbaa !12
  store ptr %9, ptr %3, align 8, !tbaa !12
  %10 = load ptr, ptr %3, align 8, !tbaa !12
  %11 = getelementptr inbounds nuw %struct.opj_worker_thread_t, ptr %10, i32 0, i32 0
  %12 = load ptr, ptr %11, align 8, !tbaa !43
  store ptr %12, ptr %4, align 8, !tbaa !32
  %13 = call ptr @opj_tls_new()
  store ptr %13, ptr %5, align 8, !tbaa !20
  br label %14

14:                                               ; preds = %40, %1
  br label %15

15:                                               ; preds = %14
  call void @llvm.lifetime.start.p0(i64 8, ptr %7) #4
  %16 = load ptr, ptr %4, align 8, !tbaa !32
  %17 = load ptr, ptr %3, align 8, !tbaa !12
  %18 = load i32, ptr %6, align 4, !tbaa !10
  %19 = call ptr @opj_thread_pool_get_next_job(ptr noundef %16, ptr noundef %17, i32 noundef %18)
  store ptr %19, ptr %7, align 8, !tbaa !12
  %20 = load ptr, ptr %7, align 8, !tbaa !12
  %21 = icmp eq ptr %20, null
  br i1 %21, label %22, label %23

22:                                               ; preds = %15
  store i32 3, ptr %8, align 4
  br label %38

23:                                               ; preds = %15
  %24 = load ptr, ptr %7, align 8, !tbaa !12
  %25 = getelementptr inbounds nuw %struct.opj_worker_thread_job_t, ptr %24, i32 0, i32 0
  %26 = load ptr, ptr %25, align 8, !tbaa !58
  %27 = icmp ne ptr %26, null
  br i1 %27, label %28, label %36

28:                                               ; preds = %23
  %29 = load ptr, ptr %7, align 8, !tbaa !12
  %30 = getelementptr inbounds nuw %struct.opj_worker_thread_job_t, ptr %29, i32 0, i32 0
  %31 = load ptr, ptr %30, align 8, !tbaa !58
  %32 = load ptr, ptr %7, align 8, !tbaa !12
  %33 = getelementptr inbounds nuw %struct.opj_worker_thread_job_t, ptr %32, i32 0, i32 1
  %34 = load ptr, ptr %33, align 8, !tbaa !60
  %35 = load ptr, ptr %5, align 8, !tbaa !20
  call void %31(ptr noundef %34, ptr noundef %35)
  br label %36

36:                                               ; preds = %28, %23
  %37 = load ptr, ptr %7, align 8, !tbaa !12
  call void @opj_free(ptr noundef %37)
  store i32 1, ptr %6, align 4, !tbaa !10
  store i32 0, ptr %8, align 4
  br label %38

38:                                               ; preds = %36, %22
  call void @llvm.lifetime.end.p0(i64 8, ptr %7) #4
  %39 = load i32, ptr %8, align 4
  switch i32 %39, label %43 [
    i32 0, label %40
    i32 3, label %41
  ]

40:                                               ; preds = %38
  br label %14

41:                                               ; preds = %38
  %42 = load ptr, ptr %5, align 8, !tbaa !20
  call void @opj_tls_destroy(ptr noundef %42)
  call void @llvm.lifetime.end.p0(i64 4, ptr %6) #4
  call void @llvm.lifetime.end.p0(i64 8, ptr %5) #4
  call void @llvm.lifetime.end.p0(i64 8, ptr %4) #4
  call void @llvm.lifetime.end.p0(i64 8, ptr %3) #4
  ret void

43:                                               ; preds = %38
  unreachable
}